target datalayout = "e-m:e-p270:32:32-p271:32:32-p272:64:64-i64:64-i128:128-f80:128-n8:16:32:64-S128"
target triple = "x86_64-pc-linux-gnu"

%struct.ma_notch2_config = type { i32, i32, i32, double, double }

; Function Attrs: alwaysinline nounwind uwtable
define internal void @ma_zero_memory_default(ptr noundef %0, i64 noundef %1) #7 {
  %3 = alloca ptr, align 8
  %4 = alloca i64, align 8
  store ptr %0, ptr %3, align 8, !tbaa !25
  store i64 %1, ptr %4, align 8, !tbaa !12
  %5 = load ptr, ptr %3, align 8, !tbaa !25
  %6 = icmp eq ptr %5, null
  br i1 %6, label %7, label %8

7:                                                ; preds = %2
  br label %14

8:                                                ; preds = %2
  %9 = load i64, ptr %4, align 8, !tbaa !12
  %10 = icmp ugt i64 %9, 0
  br i1 %10, label %11, label %14

11:                                               ; preds = %8
  %12 = load ptr, ptr %3, align 8, !tbaa !25
  %13 = load i64, ptr %4, align 8, !tbaa !12
  call void @llvm.memset.p0.i64(ptr align 1 %12, i8 0, i64 %13, i1 false)
  br label %14

14:                                               ; preds = %7, %11, %8
  ret void
}

; Function Attrs: nounwind uwtable
define void @ma_notch2_config_init(ptr dead_on_unwind noalias writable sret(%struct.ma_notch2_config) align 8 %0, i32 noundef %1, i32 noundef %2, i32 noundef %3, double noundef %4, double noundef %5) #0 {
  %7 = alloca i32, align 4
  %8 = alloca i32, align 4
  %9 = alloca i32, align 4
  %10 = alloca double, align 8
  %11 = alloca double, align 8
  store i32 %1, ptr %7, align 4, !tbaa !8
  store i32 %2, ptr %8, align 4, !tbaa !8
  store i32 %3, ptr %9, align 4, !tbaa !8
  store double %4, ptr %10, align 8, !tbaa !403
  store double %5, ptr %11, align 8, !tbaa !403
  call void @ma_zero_memory_default(ptr noundef %0, i64 noundef 32)
  %12 = load i32, ptr %7, align 4, !tbaa !8
  %13 = getelementptr inbounds nuw %struct.ma_notch2_config, ptr %0, i32 0, i32 0
  store i32 %12, ptr %13, align 8, !tbaa !425
  %14 = load i32, ptr %8, align 4, !tbaa !8
  %15 = getelementptr inbounds nuw %struct.ma_notch2_config, ptr %0, i32 0, i32 1
  store i32 %14, ptr %15, align 4, !tbaa !427
  %16 = load i32, ptr %9, align 4, !tbaa !8
  %17 = getelementptr inbounds nuw %struct.ma_notch2_config, ptr %0, i32 0, i32 2
  store i32 %16, ptr %17, align 8, !tbaa !428
  %18 = load double, ptr %10, align 8, !tbaa !403
  %19 = getelementptr inbounds nuw %struct.ma_notch2_config, ptr %0, i32 0, i32 3
  store double %18, ptr %19, align 8, !tbaa !429
  %20 = load double, ptr %11, align 8, !tbaa !403
  %21 = getelementptr inbounds nuw %struct.ma_notch2_config, ptr %0, i32 0, i32 4
  store double %20, ptr %21, align 8, !tbaa !430
  %22 = getelementptr inbounds nuw %struct.ma_notch2_config, ptr %0, i32 0, i32 3
  %23 = load double, ptr %22, align 8, !tbaa !429
  %24 = fcmp oeq double %23, 0.000000e+00
  br i1 %24, label %25, label %27

25:                                               ; preds = %6
  %26 = getelementptr inbounds nuw %struct.ma_notch2_config, ptr %0, i32 0, i32 3
  store double 7.071070e-01, ptr %26, align 8, !tbaa !429
  br label %27

27:                                               ; preds = %25, %6
  ret void
}