; Function Attrs: mustprogress nofree norecurse nosync nounwind willreturn memory(argmem: write) uwtable
define void @ma_notch2_config_init(ptr dead_on_unwind noalias writable writeonly sret(%struct.ma_notch2_config) align 8 captures(none) %0, i32 noundef %1, i32 noundef %2, i32 noundef %3, double noundef %4, double noundef %5) local_unnamed_addr #0 {
  %.not = icmp eq ptr %0, null
  br i1 %.not, label %ma_zero_memory_default.exit, label %7

7:                                                ; preds = %6
  %8 = getelementptr inbounds nuw i8, ptr %0, i64 8
  store i64 0, ptr %8, align 8
  br label %ma_zero_memory_default.exit

ma_zero_memory_default.exit:                      ; preds = %6, %7
  store i32 %1, ptr %0, align 8, !tbaa !462
  %9 = getelementptr inbounds nuw i8, ptr %0, i64 4
  store i32 %2, ptr %9, align 4, !tbaa !464
  %10 = getelementptr inbounds nuw i8, ptr %0, i64 8
  store i32 %3, ptr %10, align 8, !tbaa !465
  %11 = getelementptr inbounds nuw i8, ptr %0, i64 16
  store double %4, ptr %11, align 8, !tbaa !466
  %12 = getelementptr inbounds nuw i8, ptr %0, i64 24
  store double %5, ptr %12, align 8, !tbaa !467
  %13 = fcmp oeq double %4, 0.000000e+00
  br i1 %13, label %14, label %15

14:                                               ; preds = %ma_zero_memory_default.exit
  store double 7.071070e-01, ptr %11, align 8, !tbaa !466
  br label %15

15:                                               ; preds = %14, %ma_zero_memory_default.exit
  ret void
}